target datalayout = "e-m:e-p270:32:32-p271:32:32-p272:64:64-i64:64-i128:128-f80:128-n8:16:32:64-S128"
target triple = "x86_64-pc-linux-gnu"

%"class.cv::Size_" = type { i32, i32 }
%"class.testing::internal::linked_ptr_internal" = type { ptr }
%"class.testing::internal::ParamGenerator.105" = type { %"class.testing::internal::linked_ptr.106" }
%"class.testing::internal::linked_ptr.106" = type { ptr, %"class.testing::internal::linked_ptr_internal" }
%"class.testing::internal::CartesianProductHolder3.238" = type { %"class.testing::internal::ValueArray3", %"class.testing::internal::ValueArray5.239", %"class.testing::internal::ValueArray3.240" }
%"class.testing::internal::ValueArray3" = type { i32, i32, i32 }
%"class.testing::internal::ValueArray5.239" = type { %"class.cv::Size_", %"class.cv::Size_", %"class.cv::Size_", %"class.cv::Size_", %"class.cv::Size_" }
%"class.testing::internal::ValueArray3.240" = type { double, double, double }

@_ZN4perfL5szVGAE = internal global %"class.cv::Size_" zeroinitializer, align 4
@_ZN4perfL5szqHDE = internal global %"class.cv::Size_" zeroinitializer, align 4
@_ZN4perfL6sz720pE = internal global %"class.cv::Size_" zeroinitializer, align 4
@_ZN4perfL7sz1080pE = internal global %"class.cv::Size_" zeroinitializer, align 4
@_ZN4perfL7sz2160pE = internal global %"class.cv::Size_" zeroinitializer, align 4

; Function Attrs: mustprogress nounwind uwtable
define linkonce_odr hidden void @_ZN7testing8internal11ValueArray3IdddEC2ERKS2_(ptr noundef nonnull align 8 dereferenceable(24) %0, ptr noundef nonnull align 8 dereferenceable(24) %1) unnamed_addr #9 comdat align 2 {
  %3 = alloca ptr, align 8
  %4 = alloca ptr, align 8
  store ptr %0, ptr %3, align 8, !tbaa !929
  store ptr %1, ptr %4, align 8, !tbaa !929
  %5 = load ptr, ptr %3, align 8
  %6 = getelementptr inbounds nuw %"class.testing::internal::ValueArray3.240", ptr %5, i32 0, i32 0
  %7 = load ptr, ptr %4, align 8, !tbaa !929
  %8 = getelementptr inbounds nuw %"class.testing::internal::ValueArray3.240", ptr %7, i32 0, i32 0
  %9 = load double, ptr %8, align 8, !tbaa !937
  store double %9, ptr %6, align 8, !tbaa !937
  %10 = getelementptr inbounds nuw %"class.testing::internal::ValueArray3.240", ptr %5, i32 0, i32 1
  %11 = load ptr, ptr %4, align 8, !tbaa !929
  %12 = getelementptr inbounds nuw %"class.testing::internal::ValueArray3.240", ptr %11, i32 0, i32 1
  %13 = load double, ptr %12, align 8, !tbaa !939
  store double %13, ptr %10, align 8, !tbaa !939
  %14 = getelementptr inbounds nuw %"class.testing::internal::ValueArray3.240", ptr %5, i32 0, i32 2
  %15 = load ptr, ptr %4, align 8, !tbaa !929
  %16 = getelementptr inbounds nuw %"class.testing::internal::ValueArray3.240", ptr %15, i32 0, i32 2
  %17 = load double, ptr %16, align 8, !tbaa !940
  store double %17, ptr %14, align 8, !tbaa !940
  ret void
}

; Function Attrs: mustprogress nounwind uwtable
define linkonce_odr hidden void @_ZN7testing8internal11ValueArray5IN2cv5Size_IiEES4_S4_S4_S4_EC2ERKS5_(ptr noundef nonnull align 4 dereferenceable(40) %0, ptr noundef nonnull align 4 dereferenceable(40) %1) unnamed_addr #9 comdat align 2 {
  %3 = alloca ptr, align 8
  %4 = alloca ptr, align 8
  store ptr %0, ptr %3, align 8, !tbaa !927
  store ptr %1, ptr %4, align 8, !tbaa !927
  %5 = load ptr, ptr %3, align 8
  %6 = getelementptr inbounds nuw %"class.testing::internal::ValueArray5.239", ptr %5, i32 0, i32 0
  %7 = load ptr, ptr %4, align 8, !tbaa !927
  %8 = getelementptr inbounds nuw %"class.testing::internal::ValueArray5.239", ptr %7, i32 0, i32 0
  call void @llvm.memcpy.p0.p0.i64(ptr align 4 %6, ptr align 4 %8, i64 8, i1 false), !tbaa.struct !79
  %9 = getelementptr inbounds nuw %"class.testing::internal::ValueArray5.239", ptr %5, i32 0, i32 1
  %10 = load ptr, ptr %4, align 8, !tbaa !927
  %11 = getelementptr inbounds nuw %"class.testing::internal::ValueArray5.239", ptr %10, i32 0, i32 1
  call void @llvm.memcpy.p0.p0.i64(ptr align 4 %9, ptr align 4 %11, i64 8, i1 false), !tbaa.struct !79
  %12 = getelementptr inbounds nuw %"class.testing::internal::ValueArray5.239", ptr %5, i32 0, i32 2
  %13 = load ptr, ptr %4, align 8, !tbaa !927
  %14 = getelementptr inbounds nuw %"class.testing::internal::ValueArray5.239", ptr %13, i32 0, i32 2
  call void @llvm.memcpy.p0.p0.i64(ptr align 4 %12, ptr align 4 %14, i64 8, i1 false), !tbaa.struct !79
  %15 = getelementptr inbounds nuw %"class.testing::internal::ValueArray5.239", ptr %5, i32 0, i32 3
  %16 = load ptr, ptr %4, align 8, !tbaa !927
  %17 = getelementptr inbounds nuw %"class.testing::internal::ValueArray5.239", ptr %16, i32 0, i32 3
  call void @llvm.memcpy.p0.p0.i64(ptr align 4 %15, ptr align 4 %17, i64 8, i1 false), !tbaa.struct !79
  %18 = getelementptr inbounds nuw %"class.testing::internal::ValueArray5.239", ptr %5, i32 0, i32 4
  %19 = load ptr, ptr %4, align 8, !tbaa !927
  %20 = getelementptr inbounds nuw %"class.testing::internal::ValueArray5.239", ptr %19, i32 0, i32 4
  call void @llvm.memcpy.p0.p0.i64(ptr align 4 %18, ptr align 4 %20, i64 8, i1 false), !tbaa.struct !79
  ret void
}

; Function Attrs: mustprogress nounwind uwtable
define linkonce_odr hidden void @_ZN7testing8internal11ValueArray3IiiiEC2ERKS2_(ptr noundef nonnull align 4 dereferenceable(12) %0, ptr noundef nonnull align 4 dereferenceable(12) %1) unnamed_addr #9 comdat align 2 {
  %3 = alloca ptr, align 8
  %4 = alloca ptr, align 8
  store ptr %0, ptr %3, align 8, !tbaa !925
  store ptr %1, ptr %4, align 8, !tbaa !925
  %5 = load ptr, ptr %3, align 8
  %6 = getelementptr inbounds nuw %"class.testing::internal::ValueArray3", ptr %5, i32 0, i32 0
  %7 = load ptr, ptr %4, align 8, !tbaa !925
  %8 = getelementptr inbounds nuw %"class.testing::internal::ValueArray3", ptr %7, i32 0, i32 0
  %9 = load i32, ptr %8, align 4, !tbaa !933
  store i32 %9, ptr %6, align 4, !tbaa !933
  %10 = getelementptr inbounds nuw %"class.testing::internal::ValueArray3", ptr %5, i32 0, i32 1
  %11 = load ptr, ptr %4, align 8, !tbaa !925
  %12 = getelementptr inbounds nuw %"class.testing::internal::ValueArray3", ptr %11, i32 0, i32 1
  %13 = load i32, ptr %12, align 4, !tbaa !935
  store i32 %13, ptr %10, align 4, !tbaa !935
  %14 = getelementptr inbounds nuw %"class.testing::internal::ValueArray3", ptr %5, i32 0, i32 2
  %15 = load ptr, ptr %4, align 8, !tbaa !925
  %16 = getelementptr inbounds nuw %"class.testing::internal::ValueArray3", ptr %15, i32 0, i32 2
  %17 = load i32, ptr %16, align 4, !tbaa !936
  store i32 %17, ptr %14, align 4, !tbaa !936
  ret void
}

; Function Attrs: mustprogress uwtable
define linkonce_odr hidden void @_ZN7testing8internal23CartesianProductHolder3INS0_11ValueArray3IiiiEENS0_11ValueArray5IN2cv5Size_IiEES7_S7_S7_S7_EENS2_IdddEEEC2ERKS3_RKS8_RKS9_(ptr noundef nonnull align 8 dereferenceable(80) %0, ptr noundef nonnull align 4 dereferenceable(12) %1, ptr noundef nonnull align 4 dereferenceable(40) %2, ptr noundef nonnull align 8 dereferenceable(24) %3) unnamed_addr #6 comdat align 2 {
  %5 = alloca ptr, align 8
  %6 = alloca ptr, align 8
  %7 = alloca ptr, align 8
  %8 = alloca ptr, align 8
  store ptr %0, ptr %5, align 8, !tbaa !931
  store ptr %1, ptr %6, align 8, !tbaa !925
  store ptr %2, ptr %7, align 8, !tbaa !927
  store ptr %3, ptr %8, align 8, !tbaa !929
  %9 = load ptr, ptr %5, align 8
  %10 = getelementptr inbounds nuw %"class.testing::internal::CartesianProductHolder3.238", ptr %9, i32 0, i32 0
  %11 = load ptr, ptr %6, align 8, !tbaa !925
  call void @_ZN7testing8internal11ValueArray3IiiiEC2ERKS2_(ptr noundef nonnull align 4 dereferenceable(12) %10, ptr noundef nonnull align 4 dereferenceable(12) %11)
  %12 = getelementptr inbounds nuw %"class.testing::internal::CartesianProductHolder3.238", ptr %9, i32 0, i32 1
  %13 = load ptr, ptr %7, align 8, !tbaa !927
  call void @_ZN7testing8internal11ValueArray5IN2cv5Size_IiEES4_S4_S4_S4_EC2ERKS5_(ptr noundef nonnull align 4 dereferenceable(40) %12, ptr noundef nonnull align 4 dereferenceable(40) %13)
  %14 = getelementptr inbounds nuw %"class.testing::internal::CartesianProductHolder3.238", ptr %9, i32 0, i32 2
  %15 = load ptr, ptr %8, align 8, !tbaa !929
  call void @_ZN7testing8internal11ValueArray3IdddEC2ERKS2_(ptr noundef nonnull align 8 dereferenceable(24) %14, ptr noundef nonnull align 8 dereferenceable(24) %15)
  ret void
}

; Function Attrs: mustprogress nounwind uwtable
define linkonce_odr hidden void @_ZN7testing8internal11ValueArray3IdddEC2Eddd(ptr noundef nonnull align 8 dereferenceable(24) %0, double noundef %1, double noundef %2, double noundef %3) unnamed_addr #9 comdat align 2 {
  %5 = alloca ptr, align 8
  %6 = alloca double, align 8
  %7 = alloca double, align 8
  %8 = alloca double, align 8
  store ptr %0, ptr %5, align 8, !tbaa !929
  store double %1, ptr %6, align 8, !tbaa !206
  store double %2, ptr %7, align 8, !tbaa !206
  store double %3, ptr %8, align 8, !tbaa !206
  %9 = load ptr, ptr %5, align 8
  %10 = getelementptr inbounds nuw %"class.testing::internal::ValueArray3.240", ptr %9, i32 0, i32 0
  %11 = load double, ptr %6, align 8, !tbaa !206
  store double %11, ptr %10, align 8, !tbaa !937
  %12 = getelementptr inbounds nuw %"class.testing::internal::ValueArray3.240", ptr %9, i32 0, i32 1
  %13 = load double, ptr %7, align 8, !tbaa !206
  store double %13, ptr %12, align 8, !tbaa !939
  %14 = getelementptr inbounds nuw %"class.testing::internal::ValueArray3.240", ptr %9, i32 0, i32 2
  %15 = load double, ptr %8, align 8, !tbaa !206
  store double %15, ptr %14, align 8, !tbaa !940
  ret void
}

; Function Attrs: mustprogress nounwind uwtable
define linkonce_odr hidden void @_ZN7testing8internal11ValueArray5IN2cv5Size_IiEES4_S4_S4_S4_EC2ES4_S4_S4_S4_S4_(ptr noundef nonnull align 4 dereferenceable(40) %0, i64 %1, i64 %2, i64 %3, i64 %4, i64 %5) unnamed_addr #9 comdat align 2 {
  %7 = alloca %"class.cv::Size_", align 4
  %8 = alloca %"class.cv::Size_", align 4
  %9 = alloca %"class.cv::Size_", align 4
  %10 = alloca %"class.cv::Size_", align 4
  %11 = alloca %"class.cv::Size_", align 4
  %12 = alloca ptr, align 8
  store i64 %1, ptr %7, align 4
  store i64 %2, ptr %8, align 4
  store i64 %3, ptr %9, align 4
  store i64 %4, ptr %10, align 4
  store i64 %5, ptr %11, align 4
  store ptr %0, ptr %12, align 8, !tbaa !927
  %13 = load ptr, ptr %12, align 8
  %14 = getelementptr inbounds nuw %"class.testing::internal::ValueArray5.239", ptr %13, i32 0, i32 0
  call void @llvm.memcpy.p0.p0.i64(ptr align 4 %14, ptr align 4 %7, i64 8, i1 false), !tbaa.struct !79
  %15 = getelementptr inbounds nuw %"class.testing::internal::ValueArray5.239", ptr %13, i32 0, i32 1
  call void @llvm.memcpy.p0.p0.i64(ptr align 4 %15, ptr align 4 %8, i64 8, i1 false), !tbaa.struct !79
  %16 = getelementptr inbounds nuw %"class.testing::internal::ValueArray5.239", ptr %13, i32 0, i32 2
  call void @llvm.memcpy.p0.p0.i64(ptr align 4 %16, ptr align 4 %9, i64 8, i1 false), !tbaa.struct !79
  %17 = getelementptr inbounds nuw %"class.testing::internal::ValueArray5.239", ptr %13, i32 0, i32 3
  call void @llvm.memcpy.p0.p0.i64(ptr align 4 %17, ptr align 4 %10, i64 8, i1 false), !tbaa.struct !79
  %18 = getelementptr inbounds nuw %"class.testing::internal::ValueArray5.239", ptr %13, i32 0, i32 4
  call void @llvm.memcpy.p0.p0.i64(ptr align 4 %18, ptr align 4 %11, i64 8, i1 false), !tbaa.struct !79
  ret void
}

; Function Attrs: mustprogress nounwind uwtable
define linkonce_odr hidden void @_ZN7testing8internal11ValueArray3IiiiEC2Eiii(ptr noundef nonnull align 4 dereferenceable(12) %0, i32 noundef %1, i32 noundef %2, i32 noundef %3) unnamed_addr #9 comdat align 2 {
  %5 = alloca ptr, align 8
  %6 = alloca i32, align 4
  %7 = alloca i32, align 4
  %8 = alloca i32, align 4
  store ptr %0, ptr %5, align 8, !tbaa !925
  store i32 %1, ptr %6, align 4, !tbaa !9
  store i32 %2, ptr %7, align 4, !tbaa !9
  store i32 %3, ptr %8, align 4, !tbaa !9
  %9 = load ptr, ptr %5, align 8
  %10 = getelementptr inbounds nuw %"class.testing::internal::ValueArray3", ptr %9, i32 0, i32 0
  %11 = load i32, ptr %6, align 4, !tbaa !9
  store i32 %11, ptr %10, align 4, !tbaa !933
  %12 = getelementptr inbounds nuw %"class.testing::internal::ValueArray3", ptr %9, i32 0, i32 1
  %13 = load i32, ptr %7, align 4, !tbaa !9
  store i32 %13, ptr %12, align 4, !tbaa !935
  %14 = getelementptr inbounds nuw %"class.testing::internal::ValueArray3", ptr %9, i32 0, i32 2
  %15 = load i32, ptr %8, align 4, !tbaa !9
  store i32 %15, ptr %14, align 4, !tbaa !936
  ret void
}

; Function Attrs: mustprogress uwtable
define linkonce_odr hidden void @_ZN7testing7CombineINS_8internal11ValueArray3IiiiEENS1_11ValueArray5IN2cv5Size_IiEES7_S7_S7_S7_EENS2_IdddEEEENS1_23CartesianProductHolder3IT_T0_T1_EERKSB_RKSC_RKSD_(ptr dead_on_unwind noalias writable sret(%"class.testing::internal::CartesianProductHolder3.238") align 8 %0, ptr noundef nonnull align 4 dereferenceable(12) %1, ptr noundef nonnull align 4 dereferenceable(40) %2, ptr noundef nonnull align 8 dereferenceable(24) %3) #6 comdat {
  %5 = alloca ptr, align 8
  %6 = alloca ptr, align 8
  %7 = alloca ptr, align 8
  %8 = alloca ptr, align 8
  store ptr %0, ptr %5, align 8
  store ptr %1, ptr %6, align 8, !tbaa !925
  store ptr %2, ptr %7, align 8, !tbaa !927
  store ptr %3, ptr %8, align 8, !tbaa !929
  %9 = load ptr, ptr %6, align 8, !tbaa !925
  %10 = load ptr, ptr %7, align 8, !tbaa !927
  %11 = load ptr, ptr %8, align 8, !tbaa !929
  call void @_ZN7testing8internal23CartesianProductHolder3INS0_11ValueArray3IiiiEENS0_11ValueArray5IN2cv5Size_IiEES7_S7_S7_S7_EENS2_IdddEEEC2ERKS3_RKS8_RKS9_(ptr noundef nonnull align 8 dereferenceable(80) %0, ptr noundef nonnull align 4 dereferenceable(12) %9, ptr noundef nonnull align 4 dereferenceable(40) %10, ptr noundef nonnull align 8 dereferenceable(24) %11)
  ret void
}

; Function Attrs: mustprogress uwtable
define linkonce_odr hidden void @_ZN7testing6ValuesIdddEENS_8internal11ValueArray3IT_T0_T1_EES3_S4_S5_(ptr dead_on_unwind noalias writable sret(%"class.testing::internal::ValueArray3.240") align 8 %0, double noundef %1, double noundef %2, double noundef %3) #6 comdat {
  %5 = alloca ptr, align 8
  %6 = alloca double, align 8
  %7 = alloca double, align 8
  %8 = alloca double, align 8
  store ptr %0, ptr %5, align 8
  store double %1, ptr %6, align 8, !tbaa !206
  store double %2, ptr %7, align 8, !tbaa !206
  store double %3, ptr %8, align 8, !tbaa !206
  %9 = load double, ptr %6, align 8, !tbaa !206
  %10 = load double, ptr %7, align 8, !tbaa !206
  %11 = load double, ptr %8, align 8, !tbaa !206
  call void @_ZN7testing8internal11ValueArray3IdddEC2Eddd(ptr noundef nonnull align 8 dereferenceable(24) %0, double noundef %9, double noundef %10, double noundef %11)
  ret void
}

; Function Attrs: mustprogress uwtable
define linkonce_odr hidden void @_ZN7testing6ValuesIN2cv5Size_IiEES3_S3_S3_S3_EENS_8internal11ValueArray5IT_T0_T1_T2_T3_EES6_S7_S8_S9_SA_(ptr dead_on_unwind noalias writable sret(%"class.testing::internal::ValueArray5.239") align 4 %0, i64 %1, i64 %2, i64 %3, i64 %4, i64 %5) #6 comdat {
  %7 = alloca ptr, align 8
  %8 = alloca %"class.cv::Size_", align 4
  %9 = alloca %"class.cv::Size_", align 4
  %10 = alloca %"class.cv::Size_", align 4
  %11 = alloca %"class.cv::Size_", align 4
  %12 = alloca %"class.cv::Size_", align 4
  %13 = alloca %"class.cv::Size_", align 4
  %14 = alloca %"class.cv::Size_", align 4
  %15 = alloca %"class.cv::Size_", align 4
  %16 = alloca %"class.cv::Size_", align 4
  %17 = alloca %"class.cv::Size_", align 4
  store ptr %0, ptr %7, align 8
  store i64 %1, ptr %8, align 4
  store i64 %2, ptr %9, align 4
  store i64 %3, ptr %10, align 4
  store i64 %4, ptr %11, align 4
  store i64 %5, ptr %12, align 4
  call void @llvm.memcpy.p0.p0.i64(ptr align 4 %13, ptr align 4 %8, i64 8, i1 false), !tbaa.struct !79
  call void @llvm.memcpy.p0.p0.i64(ptr align 4 %14, ptr align 4 %9, i64 8, i1 false), !tbaa.struct !79
  call void @llvm.memcpy.p0.p0.i64(ptr align 4 %15, ptr align 4 %10, i64 8, i1 false), !tbaa.struct !79
  call void @llvm.memcpy.p0.p0.i64(ptr align 4 %16, ptr align 4 %11, i64 8, i1 false), !tbaa.struct !79
  call void @llvm.memcpy.p0.p0.i64(ptr align 4 %17, ptr align 4 %12, i64 8, i1 false), !tbaa.struct !79
  %18 = load i64, ptr %13, align 4
  %19 = load i64, ptr %14, align 4
  %20 = load i64, ptr %15, align 4
  %21 = load i64, ptr %16, align 4
  %22 = load i64, ptr %17, align 4
  call void @_ZN7testing8internal11ValueArray5IN2cv5Size_IiEES4_S4_S4_S4_EC2ES4_S4_S4_S4_S4_(ptr noundef nonnull align 4 dereferenceable(40) %0, i64 %18, i64 %19, i64 %20, i64 %21, i64 %22)
  ret void
}

; Function Attrs: mustprogress uwtable
define linkonce_odr hidden void @_ZN7testing6ValuesIiiiEENS_8internal11ValueArray3IT_T0_T1_EES3_S4_S5_(ptr dead_on_unwind noalias writable sret(%"class.testing::internal::ValueArray3") align 4 %0, i32 noundef %1, i32 noundef %2, i32 noundef %3) #6 comdat {
  %5 = alloca ptr, align 8
  %6 = alloca i32, align 4
  %7 = alloca i32, align 4
  %8 = alloca i32, align 4
  store ptr %0, ptr %5, align 8
  store i32 %1, ptr %6, align 4, !tbaa !9
  store i32 %2, ptr %7, align 4, !tbaa !9
  store i32 %3, ptr %8, align 4, !tbaa !9
  %9 = load i32, ptr %6, align 4, !tbaa !9
  %10 = load i32, ptr %7, align 4, !tbaa !9
  %11 = load i32, ptr %8, align 4, !tbaa !9
  call void @_ZN7testing8internal11ValueArray3IiiiEC2Eiii(ptr noundef nonnull align 4 dereferenceable(12) %0, i32 noundef %9, i32 noundef %10, i32 noundef %11)
  ret void
}

; Function Attrs: mustprogress uwtable
define internal void @_ZN11opencv_testL55gtest_MatInfo_Size_Scale_Area_ResizeArea_EvalGenerator_Ev(ptr dead_on_unwind noalias writable sret(%"class.testing::internal::ParamGenerator.105") align 8 %0) #6 {
  %2 = alloca ptr, align 8
  %3 = alloca %"class.testing::internal::CartesianProductHolder3.238", align 8
  %4 = alloca %"class.testing::internal::ValueArray3", align 4
  %5 = alloca %"class.testing::internal::ValueArray5.239", align 4
  %6 = alloca %"class.cv::Size_", align 4
  %7 = alloca %"class.cv::Size_", align 4
  %8 = alloca %"class.cv::Size_", align 4
  %9 = alloca %"class.cv::Size_", align 4
  %10 = alloca %"class.cv::Size_", align 4
  %11 = alloca %"class.testing::internal::ValueArray3.240", align 8
  store ptr %0, ptr %2, align 8
  call void @llvm.lifetime.start.p0(i64 80, ptr %3) #3
  call void @llvm.lifetime.start.p0(i64 12, ptr %4) #3
  call void @_ZN7testing6ValuesIiiiEENS_8internal11ValueArray3IT_T0_T1_EES3_S4_S5_(ptr dead_on_unwind writable sret(%"class.testing::internal::ValueArray3") align 4 %4, i32 noundef 0, i32 noundef 16, i32 noundef 24)
  call void @llvm.lifetime.start.p0(i64 40, ptr %5) #3
  call void @llvm.memcpy.p0.p0.i64(ptr align 4 %6, ptr align 4 @_ZN4perfL5szVGAE, i64 8, i1 false), !tbaa.struct !79
  call void @llvm.memcpy.p0.p0.i64(ptr align 4 %7, ptr align 4 @_ZN4perfL5szqHDE, i64 8, i1 false), !tbaa.struct !79
  call void @llvm.memcpy.p0.p0.i64(ptr align 4 %8, ptr align 4 @_ZN4perfL6sz720pE, i64 8, i1 false), !tbaa.struct !79
  call void @llvm.memcpy.p0.p0.i64(ptr align 4 %9, ptr align 4 @_ZN4perfL7sz1080pE, i64 8, i1 false), !tbaa.struct !79
  call void @llvm.memcpy.p0.p0.i64(ptr align 4 %10, ptr align 4 @_ZN4perfL7sz2160pE, i64 8, i1 false), !tbaa.struct !79
  %12 = load i64, ptr %6, align 4
  %13 = load i64, ptr %7, align 4
  %14 = load i64, ptr %8, align 4
  %15 = load i64, ptr %9, align 4
  %16 = load i64, ptr %10, align 4
  call void @_ZN7testing6ValuesIN2cv5Size_IiEES3_S3_S3_S3_EENS_8internal11ValueArray5IT_T0_T1_T2_T3_EES6_S7_S8_S9_SA_(ptr dead_on_unwind writable sret(%"class.testing::internal::ValueArray5.239") align 4 %5, i64 %12, i64 %13, i64 %14, i64 %15, i64 %16)
  call void @llvm.lifetime.start.p0(i64 24, ptr %11) #3
  call void @_ZN7testing6ValuesIdddEENS_8internal11ValueArray3IT_T0_T1_EES3_S4_S5_(ptr dead_on_unwind writable sret(%"class.testing::internal::ValueArray3.240") align 8 %11, double noundef 1.000000e-01, double noundef 2.500000e-01, double noundef 8.100000e-01)
  call void @_ZN7testing7CombineINS_8internal11ValueArray3IiiiEENS1_11ValueArray5IN2cv5Size_IiEES7_S7_S7_S7_EENS2_IdddEEEENS1_23CartesianProductHolder3IT_T0_T1_EERKSB_RKSC_RKSD_(ptr dead_on_unwind writable sret(%"class.testing::internal::CartesianProductHolder3.238") align 8 %3, ptr noundef nonnull align 4 dereferenceable(12) %4, ptr noundef nonnull align 4 dereferenceable(40) %5, ptr noundef nonnull align 8 dereferenceable(24) %11)
  call void @_ZNK7testing8internal23CartesianProductHolder3INS0_11ValueArray3IiiiEENS0_11ValueArray5IN2cv5Size_IiEES7_S7_S7_S7_EENS2_IdddEEEcvNS0_14ParamGeneratorISt5tupleIJT_T0_T1_EEEEIN4perf7MatTypeES7_dEEv(ptr dead_on_unwind writable sret(%"class.testing::internal::ParamGenerator.105") align 8 %0, ptr noundef nonnull align 8 dereferenceable(80) %3)
  call void @llvm.lifetime.end.p0(i64 24, ptr %11) #3
  call void @llvm.lifetime.end.p0(i64 40, ptr %5) #3
  call void @llvm.lifetime.end.p0(i64 12, ptr %4) #3
  call void @llvm.lifetime.end.p0(i64 80, ptr %3) #3
  ret void
}