; Function Attrs: mustprogress uwtable
define internal void @_ZN11opencv_testL55gtest_MatInfo_Size_Scale_Area_ResizeArea_EvalGenerator_Ev(ptr dead_on_unwind noalias writable sret(%"class.testing::internal::ParamGenerator.105") align 8 %0) #4 {
  %2 = alloca %"class.testing::internal::CartesianProductHolder3.238", align 8
  call void @llvm.lifetime.start.p0(i64 80, ptr nonnull %2) #31
  %.sroa.04.0.copyload = load i64, ptr @_ZN4perfL5szVGAE, align 8
  %.sroa.03.0.copyload = load i64, ptr @_ZN4perfL5szqHDE, align 8
  %.sroa.02.0.copyload = load i64, ptr @_ZN4perfL6sz720pE, align 8
  %.sroa.01.0.copyload = load i64, ptr @_ZN4perfL7sz1080pE, align 8
  %.sroa.0.0.copyload = load i64, ptr @_ZN4perfL7sz2160pE, align 8
  store i32 0, ptr %2, align 8, !tbaa !246, !alias.scope !248
  %3 = getelementptr inbounds nuw i8, ptr %2, i64 4
  store i32 16, ptr %3, align 4, !tbaa !251, !alias.scope !248
  %4 = getelementptr inbounds nuw i8, ptr %2, i64 8
  store i32 24, ptr %4, align 8, !tbaa !252, !alias.scope !248
  %5 = getelementptr inbounds nuw i8, ptr %2, i64 12
  store i64 %.sroa.04.0.copyload, ptr %5, align 4, !alias.scope !248
  %6 = getelementptr inbounds nuw i8, ptr %2, i64 20
  store i64 %.sroa.03.0.copyload, ptr %6, align 4, !alias.scope !248
  %7 = getelementptr inbounds nuw i8, ptr %2, i64 28
  store i64 %.sroa.02.0.copyload, ptr %7, align 4, !alias.scope !248
  %8 = getelementptr inbounds nuw i8, ptr %2, i64 36
  store i64 %.sroa.01.0.copyload, ptr %8, align 4, !alias.scope !248
  %9 = getelementptr inbounds nuw i8, ptr %2, i64 44
  store i64 %.sroa.0.0.copyload, ptr %9, align 4, !alias.scope !248
  %10 = getelementptr inbounds nuw i8, ptr %2, i64 56
  store double 1.000000e-01, ptr %10, align 8, !tbaa !253, !alias.scope !248
  %11 = getelementptr inbounds nuw i8, ptr %2, i64 64
  store double 2.500000e-01, ptr %11, align 8, !tbaa !255, !alias.scope !248
  %12 = getelementptr inbounds nuw i8, ptr %2, i64 72
  store double 8.100000e-01, ptr %12, align 8, !tbaa !256, !alias.scope !248
  call void @_ZNK7testing8internal23CartesianProductHolder3INS0_11ValueArray3IiiiEENS0_11ValueArray5IN2cv5Size_IiEES7_S7_S7_S7_EENS2_IdddEEEcvNS0_14ParamGeneratorISt5tupleIJT_T0_T1_EEEEIN4perf7MatTypeES7_dEEv(ptr dead_on_unwind writable sret(%"class.testing::internal::ParamGenerator.105") align 8 %0, ptr noundef nonnull align 8 dereferenceable(80) %2)
  call void @llvm.lifetime.end.p0(i64 80, ptr nonnull %2) #31
  ret void
}